; Function Attrs: nounwind uwtable
define range(i32 -1, 1) i32 @H5HF__hdr_inc_iter(ptr noundef %0, i64 noundef %1, i32 noundef %2) local_unnamed_addr #0 {
  %4 = load i8, ptr @H5HF_init_g, align 1, !tbaa !3, !range !7, !noundef !8
  %5 = trunc nuw i8 %4 to i1
  %6 = load i8, ptr @H5_libterm_g, align 1, !range !7
  %7 = trunc nuw i8 %6 to i1
  %8 = xor i1 %7, true
  %9 = select i1 %5, i1 true, i1 %8
  br i1 %9, label %10, label %25, !prof !9

10:                                               ; preds = %3
  %11 = getelementptr inbounds nuw i8, ptr %0, i64 656
  %12 = load ptr, ptr %11, align 8, !tbaa !76
  %.not = icmp eq ptr %12, null
  br i1 %.not, label %21, label %13

13:                                               ; preds = %10
  %14 = getelementptr inbounds nuw i8, ptr %0, i64 648
  %15 = tail call i32 @H5HF__man_iter_next(ptr noundef nonnull %0, ptr noundef nonnull %14, i32 noundef %2) #7
  %16 = icmp slt i32 %15, 0
  br i1 %16, label %17, label %21

17:                                               ; preds = %13
  %18 = load i64, ptr @H5E_HEAP_g, align 8, !tbaa !10
  %19 = load i64, ptr @H5E_CANTNEXT_g, align 8, !tbaa !10
  %20 = tail call i32 (ptr, ptr, i32, i64, i64, ptr, ...) @H5E_printf_stack(ptr noundef nonnull @.str, ptr noundef nonnull @__func__.H5HF__hdr_inc_iter, i32 noundef 1094, i64 noundef %18, i64 noundef %19, ptr noundef nonnull @.str.37) #7
  br label %25

21:                                               ; preds = %13, %10
  %22 = getelementptr inbounds nuw i8, ptr %0, i64 520
  %23 = load i64, ptr %22, align 8, !tbaa !75
  %24 = add i64 %23, %1
  store i64 %24, ptr %22, align 8, !tbaa !75
  br label %25

25:                                               ; preds = %17, %21, %3
  %.0 = phi i32 [ -1, %17 ], [ 0, %21 ], [ 0, %3 ]
  ret i32 %.0
}